V.holder {\u000a  width: 80%;\u000a  margin: auto; }\u000a  .holder .row1 #one, .holder .row1 #two, .holder .row1 #three {\u000a    display: inline-block;\u000a    padding: 20px;\u000a    width: 50%;\u000a    text-align: center;\u000a    margin: auto; }\u000a\u000ah1 {\u000a  color: red; }\u000a
p1
.